; Function Attrs: mustprogress uwtable
define dso_local void @_ZN19cmUVJobServerClient4Impl13ReceivedTokenEv(ptr noundef nonnull align 8 dereferenceable(104) %0) local_unnamed_addr #3 align 2 personality ptr @__gxx_personality_v0 {
  %2 = getelementptr inbounds i8, ptr %0, i64 100
  %3 = load i32, ptr %2, align 4
  %4 = add i32 %3, -1
  store i32 %4, ptr %2, align 4
  %5 = icmp eq i32 %4, 0
  br i1 %5, label %6, label %_ZN19cmUVJobServerClient4Impl19DecrementNeedTokensEv.exit

6:                                                ; preds = %1
  %7 = load ptr, ptr %0, align 8
  %8 = getelementptr inbounds i8, ptr %7, i64 32
  %9 = load ptr, ptr %8, align 8
  tail call void %9(ptr noundef nonnull align 8 dereferenceable(104) %0)
  br label %_ZN19cmUVJobServerClient4Impl19DecrementNeedTokensEv.exit

_ZN19cmUVJobServerClient4Impl19DecrementNeedTokensEv.exit: ; preds = %1, %6
  %10 = getelementptr inbounds i8, ptr %0, i64 96
  %11 = load i32, ptr %10, align 8
  %12 = add i32 %11, 1
  store i32 %12, ptr %10, align 8
  %13 = getelementptr inbounds i8, ptr %0, i64 48
  %14 = load ptr, ptr %13, align 8
  %.not.i.i.not.i = icmp eq ptr %14, null
  br i1 %.not.i.i.not.i, label %18, label %_ZNKSt8functionIFvvEEclEv.exit.i

_ZNKSt8functionIFvvEEclEv.exit.i:                 ; preds = %_ZN19cmUVJobServerClient4Impl19DecrementNeedTokensEv.exit
  %15 = getelementptr inbounds i8, ptr %0, i64 32
  %16 = getelementptr inbounds i8, ptr %0, i64 56
  %17 = load ptr, ptr %16, align 8
  tail call void %17(ptr noundef nonnull align 8 dereferenceable(16) %15)
  br label %_ZN19cmUVJobServerClient4Impl9HoldTokenEv.exit

18:                                               ; preds = %_ZN19cmUVJobServerClient4Impl19DecrementNeedTokensEv.exit
  store i32 %11, ptr %10, align 8
  %19 = icmp eq i32 %11, 0
  br i1 %19, label %20, label %31

20:                                               ; preds = %18
  %21 = load i32, ptr %2, align 4
  %.not.i.i2.i = icmp eq i32 %21, 0
  br i1 %.not.i.i2.i, label %_ZN19cmUVJobServerClient4Impl9HoldTokenEv.exit, label %22

22:                                               ; preds = %20
  %23 = add i32 %21, -1
  store i32 %23, ptr %2, align 4
  %24 = icmp eq i32 %23, 0
  br i1 %24, label %25, label %_ZN19cmUVJobServerClient4Impl19DecrementNeedTokensEv.exit.i.i.i

25:                                               ; preds = %22
  %26 = load ptr, ptr %0, align 8
  %27 = getelementptr inbounds i8, ptr %26, i64 32
  %28 = load ptr, ptr %27, align 8
  tail call void %28(ptr noundef nonnull align 8 dereferenceable(104) %0)
  br label %_ZN19cmUVJobServerClient4Impl19DecrementNeedTokensEv.exit.i.i.i

_ZN19cmUVJobServerClient4Impl19DecrementNeedTokensEv.exit.i.i.i: ; preds = %25, %22
  %29 = getelementptr inbounds i8, ptr %0, i64 16
  %30 = tail call noundef i32 @_ZN2cm11uv_idle_ptr5startEPFvP9uv_idle_sE(ptr noundef nonnull align 8 dereferenceable(16) %29, ptr noundef nonnull @"_ZZN19cmUVJobServerClient4Impl20RequestImplicitTokenEvEN3$_08__invokeEP9uv_idle_s")
  br label %_ZN19cmUVJobServerClient4Impl9HoldTokenEv.exit

31:                                               ; preds = %18
  %32 = load ptr, ptr %0, align 8
  %33 = getelementptr inbounds i8, ptr %32, i64 16
  %34 = load ptr, ptr %33, align 8
  tail call void %34(ptr noundef nonnull align 8 dereferenceable(104) %0)
  br label %_ZN19cmUVJobServerClient4Impl9HoldTokenEv.exit

_ZN19cmUVJobServerClient4Impl9HoldTokenEv.exit:   ; preds = %_ZNKSt8functionIFvvEEclEv.exit.i, %20, %_ZN19cmUVJobServerClient4Impl19DecrementNeedTokensEv.exit.i.i.i, %31
  ret void
}